(lp0
(lp1
I-1
aI-1
aI-1
aI-1
aI-1
aI-1
aI-1
aI-1
aI-1
aI-1
aI-1
aI-1
aI-1
aI-1
aI-1
aI-1
aI-1
aI-1
aI-1
aI-1
aI-1
aI-1
aI-1
aI-1
aI-1
a(I8
tp2
a(I14
tp3
a(I15
tp4
aI-1
aI-1
aa(lp5
I-1
aI-1
aI-1
aI-1
aI-1
aI-1
aI-1
aI-1
a(I13
tp6
a(I15
tp7
a(I8
tp8
a(I30
tp9
aI-1
aI-1
aI-1
aI-1
aI-1
aI-1
aI-1
aI-1
aI-1
aI-1
aI-1
aI-19
aI8
aI3
aI6
aI2
a(I37
tp10
aI-1
aa(lp11
I-1
aI-1
aI-1
aI-1
aI-1
aI-1
aI-1
aI-27
aI4
aI9
aI1
aI7
aI6
aI-1
aI-1
aI-1
a(I9
tp12
a(I16
tp13
a(I3
tp14
a(I9
tp15
a(I14
tp16
a(I16
tp17
aI-1
aI-1
aI-26
aI5
aI8
aI7
aI6
aI-1
aa(lp18
I-1
aI-1
aI-1
aI-44
aI3
aI5
aI4
aI2
aI9
aI6
aI7
aI8
a(I6
tp19
aI-1
aI-1
a(I12
tp20
aI4
aI9
aI2
aI3
aI6
aI7
aI1
aI5
aI-1
aI-1
aI-10
aI6
aI4
a(I15
tp21
aa(lp22
I-1
aI-1
aI-1
aI-1
aI-1
aI-1
aI-1
aI-1
a(I13
tp23
a(I10
tp24
a(I5
tp25
aI9
aI1
aI-1
aI-37
aI4
aI2
aI7
aI1
aI6
aI8
aI9
aI-1
aI-1
aI-1
aI-1
aI-1
aI-9
aI3
aI6
aa(lp26
I-1
aI-1
aI-1
aI-1
aI-1
aI-1
aI-1
aI-45
aI4
aI7
aI1
aI6
aI5
aI9
aI2
aI8
aI3
aI-1
aI-1
aI-1
aI-1
a(I9
tp27
a(I5
tp28
a(I16
tp29
a(I15
tp30
aI-1
aI-1
a(I22
tp31
aI1
aI7
aa(lp32
I-1
aI-1
aI-44
aI5
aI6
aI2
aI8
aI7
aI9
aI3
aI4
aI-1
aI-1
aI-1
aI-1
aI-1
aI-1
aI-1
aI-1
aI-1
aI-18
aI1
aI2
aI7
aI8
a(I14
tp33
aI-13
aI4
aI7
aI2
aa(lp34
I-1
aI-1
aI-1
aI-1
aI-1
aI-1
aI-1
aI-1
aI-1
aI-1
aI-1
aI-1
aI-1
aI-1
aI-1
aI-1
aI-45
aI2
aI5
aI1
aI7
aI8
aI3
aI9
aI4
aI6
aI-13
aI8
aI5
aI-1
aa(lp35
I-1
aI-1
aI-1
aI-1
aI-1
aI-1
aI-1
aI-1
aI-1
aI-1
aI-1
aI-1
aI-1
aI-1
aI-1
aI-1
aI-1
aI-1
aI-1
aI-1
aI-1
aI-1
aI-1
aI-18
aI3
aI8
aI4
aI1
aI2
aI-1
aa(lp36
I-45
aI1
aI6
aI9
aI5
aI3
aI2
aI4
aI8
aI7
aI-1
aI-1
aI-1
aI-1
aI-1
aI-1
aI-1
aI-1
aI-1
aI-1
aI-1
aI-1
aI-1
aI-1
aI-1
aI-1
aI-17
aI7
aI9
aI1
aa(lp37
I-1
aI-1
aI-1
aI-1
aI-1
aI-1
aI-1
aI-1
aI-1
aI-1
aI-1
aI-1
aI-1
aI-1
aI-1
aI-1
aI-1
aI-1
aI-1
aI-1
aI-1
aI-1
aI-1
aI-1
aI-12
aI7
aI3
aI2
a(I27
tp38
a(I27
tp39
aa(lp40
I-1
aI-36
aI7
aI3
aI6
aI5
aI2
aI4
aI1
aI8
aI-1
aI-1
aI-1
aI-1
aI-1
aI-1
aI-1
aI-1
aI-1
aI-1
aI-1
aI-1
aI-1
aI-1
aI-1
aI-1
aI-1
aI-14
aI5
aI9
aa(lp41
I-1
aI-1
aI-1
aI-1
aI-1
aI-1
aI-1
aI-1
aI-1
aI-1
aI-1
aI-1
aI-1
aI-1
aI-1
aI-1
aI-1
aI-1
a(I9
tp42
a(I8
tp43
a(I3
tp44
a(I10
tp45
aI-1
aI-13
aI5
aI6
aI2
aI-11
aI3
aI8
aa(lp46
I-1
aI-1
aI-1
aI-1
aI-1
aI-1
aI-1
aI-1
aI-1
aI-1
aI-1
aI-1
aI-1
aI-1
aI-1
aI-1
aI-1
aI-24
aI3
aI5
aI1
aI6
aI9
aI-1
aI-1
aI-1
aI-1
aI-9
aI7
aI2
aa(lp47
I-1
aI-1
aI-1
aI-1
aI-1
aI-1
aI-1
aI-1
aI-36
aI3
aI4
aI2
aI5
aI6
aI7
aI8
aI1
aI-15
aI6
aI3
aI2
aI4
aI-1
aI-1
aI-1
aI-1
aI-1
aI-4
aI1
aI3
aa(lp48
I-1
aI-1
aI-1
aI-1
aI-1
aI-1
aI-1
aI-1
aI-1
aI-1
aI-1
aI-1
aI-1
aI-1
aI-1
aI-1
aI-1
aI-1
aI-1
aI-1
aI-1
aI-1
aI-1
aI-1
aI-1
aI-1
a(I21
tp49
a(I21
tp50
aI2
aI4
aa(lp51
I-1
aI-1
aI-1
aI-1
aI-1
aI-1
aI-1
aI-1
aI-1
aI-1
aI-1
aI-1
aI-1
aI-1
aI-1
aI-1
aI-1
aI-1
aI-1
aI-1
aI-1
aI-1
a(I12
tp52
a(I13
tp53
aI-1
a(I44
tp54
aI8
aI5
aI9
aI1
aa(lp55
I-1
aI-45
aI5
aI8
aI6
aI9
aI3
aI1
aI7
aI4
aI2
aI-1
aI-1
aI-1
aI-1
aI-1
aI-1
aI-1
aI-1
aI-1
aI-1
aI-34
aI4
aI5
aI2
aI8
aI6
aI9
a(I45
tp56
aI-1
aa(lp57
I-1
aI-1
aI-1
aI-1
aI-1
aI-1
a(I16
tp58
a(I13
tp59
a(I14
tp60
a(I16
tp61
aI-1
aI-1
aI-1
aI-1
aI-1
aI-1
aI-1
aI-1
aI-1
aI-1
aI-1
aI-8
aI6
aI2
aI-17
aI5
aI7
aI1
aI4
aI-1
aa(lp62
I-1
aI-1
a(I9
tp63
a(I10
tp64
a(I8
tp65
a(I5
tp66
aI3
aI2
aI6
aI1
aI7
aI5
aI9
aI8
aI-1
aI-1
aI-1
aI-1
aI-29
aI3
aI8
aI1
aI2
aI6
aI5
aI4
aI-18
aI4
aI8
aI6
aa(lp67
I-1
aI-42
aI7
aI9
aI2
aI1
aI8
aI4
aI5
aI6
aI-1
aI-1
aI-1
aI-1
aI-1
aI-1
aI-1
aI-1
aI-1
aI-1
aI-1
aI-1
aI-1
aI-1
aI-17
aI9
aI5
aI2
aI1
a(I5
tp68
aa(lp69
I-1
aI-45
aI2
aI1
aI6
aI4
aI5
aI7
aI3
aI9
aI8
aI-1
aI-1
aI-1
aI-1
aI-1
aI-1
aI-1
aI-1
aI-1
aI-1
aI-1
aI-14
aI7
aI5
aI2
aI-1
aI-10
aI6
aI4
aa(lp70
I-1
aI-1
aI-1
aI-1
aI-1
aI-1
aI-1
aI-1
aI-1
aI-1
aI-1
aI-1
aI-1
aI-1
aI-1
aI-1
aI-1
aI-1
aI-1
aI-1
aI-1
aI-1
a(I12
tp71
a(I17
tp72
a(I3
tp73
aI3
aI9
a(I11
tp74
aI5
aI1
aa(lp75
I-1
aI-45
aI5
aI1
aI7
aI3
aI8
aI6
aI2
aI9
aI4
aI-1
aI-1
aI-1
aI-1
aI-1
aI-1
aI-1
aI-1
aI-1
aI-1
aI-19
aI3
aI9
aI1
aI6
aI-16
aI9
aI7
a(I24
tp76
aa(lp77
I-1
aI-1
aI-1
aI-1
aI-1
aI-1
aI-1
aI-1
aI-1
aI-1
aI-1
aI-1
aI-1
aI-1
aI-1
aI-1
aI-1
aI-1
aI-1
a(I6
tp78
a(I13
tp79
a(I14
tp80
aI9
aI8
aI2
aI7
aI-14
aI2
aI3
aI9
aa(lp81
I-1
aI-1
aI-1
aI-1
aI-1
aI-1
aI-1
aI-1
aI-1
aI-1
aI-1
aI-1
aI-1
aI-1
aI-1
aI-1
aI-1
aI-1
aI-13
aI1
aI4
aI8
aI-1
aI-1
a(I4
tp82
a(I19
tp83
aI-1
aI-16
aI9
aI7
aa(lp84
I-1
aI-1
aI-1
aI-1
aI-1
aI-1
aI-1
aI-1
aI-1
aI-1
aI-1
aI-1
aI-1
aI-1
aI-1
aI-1
aI-1
aI-1
aI-21
aI5
aI9
aI6
aI1
a(I16
I-4
tp85
aI3
aI1
a(I13
tp86
a(I19
I-10
tp87
aI2
aI8
aa(lp88
I-1
aI-1
aI-1
aI-1
aI-1
aI-1
aI-1
aI-1
aI-1
aI-1
aI-1
aI-1
aI-1
aI-1
aI-1
aI-1
aI-1
aI-1
aI-1
aI-1
aI-1
aI-1
aI-28
aI6
aI1
aI7
aI5
aI9
aI-1
aI-1
aa(lp89
I-1
aI-1
aI-1
aI-1
aI-1
aI-1
aI-1
aI-1
aI-1
aI-1
aI-1
aI-1
aI-1
aI-1
aI-1
aI-1
aI-1
aI-1
aI-1
aI-1
aI-1
aI-15
aI7
aI8
aI-22
aI8
aI7
aI3
aI4
aI-1
aa(lp90
I-1
aI-1
aI-1
aI-1
aI-1
aI-1
aI-1
aI-1
aI-1
aI-20
aI9
aI4
aI7
aI-1
aI-1
aI-1
aI-1
aI-1
aI-1
aI-1
aI-1
aI-1
aI-19
aI2
aI6
aI3
aI1
aI7
aI-1
aI-1
aa.