(lp0
(lp1
I-1
aI-1
aI-1
aI-1
a(I18
tp2
a(I13
tp3
a(I29
tp4
aI-1
aI-1
aI-1
aa(lp5
I-1
aI-1
a(I9
tp6
a(I13
tp7
aI8
aI9
aI2
a(I20
tp8
aI9
aI2
aa(lp9
I-1
aI-33
aI8
aI1
aI5
aI4
aI9
aI6
a(I25
tp10
aI-1
aa(lp11
I-12
aI6
aI1
aI3
aI2
a(I5
tp12
aI5
aI4
aI3
aI1
aa(lp13
I-1
aI-1
aI-31
aI9
aI3
aI4
aI6
aI1
aI8
a(I22
tp14
aa(lp15
I-1
aI-1
aI-1
aI-1
aI-24
aI1
aI7
aI9
aI2
aI5
aa(lp16
I-1
aI-15
aI6
aI9
aI-1
aI-1
aI-1
aI-14
aI5
aI9
aa(lp17
I-1
aI-1
aI-1
aI-1
aI-1
aI-1
a(I12
tp18
a(I9
I-15
tp19
aI7
aI8
aa(lp20
I-1
aI-1
aI-1
aI-1
aI-1
aI-13
aI9
aI4
aI-1
aI-1
aa(lp21
I-1
aI-1
aI-1
aI-33
aI2
aI6
aI3
aI5
aI8
aI9
aa.