(lp0
(lp1
I-1
aI-1
aI-1
aI-1
aI-1
a(I11
tp2
aI-1
a(I15
tp3
a(I35
tp4
aI-1
aa(lp5
I-1
aI-1
aI-1
aI-1
aI-17
aI2
aI6
aI1
aI8
aI-1
aa(lp6
I-31
aI5
aI2
aI8
aI7
aI9
a(I17
tp7
aI5
aI3
aI8
aa(lp8
I-1
aI-1
a(I11
tp9
a(I8
tp10
a(I7
tp11
aI-17
aI2
aI6
aI9
a(I8
tp12
aa(lp13
I-1
aI-10
aI7
aI1
aI2
aI-16
aI7
aI3
aI5
aI1
aa(lp14
I-1
aI-26
aI4
aI7
aI5
aI2
aI8
aI-9
aI2
aI7
aa(lp15
I-1
aI-1
aI-1
aI-1
aI-1
aI-1
aI-10
aI3
aI7
aI-1
aa(lp16
I-1
aI-1
aI-1
aI-1
aI-1
aI-1
a(I12
tp17
a(I6
I-5
tp18
aI1
aI4
aa(lp19
I-1
aI-1
aI-1
aI-1
aI-1
aI-10
aI9
aI1
aI-1
aI-1
aa(lp20
I-1
aI-37
aI2
aI9
aI6
aI4
aI3
aI5
aI8
aI-1
aa.