(lp0
(lp1
I-1
aI-1
aI-1
aI-1
aI-1
aI-1
aI-1
aI-1
aI-1
aI-1
aI-1
aI-1
aI-1
aI-1
aI-1
aI-1
aI-1
aI-1
a(I14
tp2
a(I13
tp3
aa(lp4
I-1
aI-1
aI-1
aI-1
aI-39
aI8
aI9
aI1
aI7
aI3
aI5
aI6
aI-1
aI-1
aI-1
aI-1
aI-1
aI-10
aI1
aI9
aa(lp5
I-1
aI-1
aI-1
aI-1
aI-1
a(I12
tp6
a(I14
tp7
a(I19
tp8
a(I15
tp9
a(I28
tp10
a(I26
tp11
a(I22
tp12
aI-5
aI1
aI4
aI-1
aI-1
a(I14
tp13
aI7
aI4
aa(lp14
I-1
aI-1
aI-1
aI-1
a(I5
tp15
aI7
aI8
aI5
aI9
aI4
aI6
aI2
aI3
aI-1
aI-1
aI-1
a(I10
tp16
aI2
aI6
aI-1
aa(lp17
I-1
aI-1
aI-45
aI5
aI2
aI1
aI4
aI6
aI3
aI8
aI7
aI9
a(I11
tp18
aI-1
aI-1
a(I11
tp19
aI4
aI3
aI-1
aI-1
aa(lp20
I-1
aI-1
aI-1
aI-45
aI3
aI4
aI2
aI8
aI1
aI7
aI9
aI6
aI5
aI-1
a(I37
tp21
aI3
aI6
aI9
a(I30
tp22
a(I8
tp23
aa(lp24
I-1
aI-1
aI-1
aI-1
aI-1
aI-1
aI-1
aI-44
aI2
aI9
aI4
aI5
aI6
aI3
aI8
aI7
aI-1
aI-4
aI1
aI3
aa(lp25
I-37
aI8
aI6
aI3
aI2
aI5
aI9
aI4
aI-1
aI-1
aI-1
aI-1
aI-1
aI-12
aI5
aI1
aI6
a(I8
tp26
aI3
aI5
aa(lp27
I-1
aI-1
aI-1
aI-1
aI-1
aI-1
aI-1
aI-1
aI-1
aI-1
aI-1
aI-10
aI4
aI5
aI1
a(I8
tp28
a(I10
tp29
aI1
aI9
aI-1
aa(lp30
I-1
aI-1
aI-1
aI-1
aI-1
aI-1
aI-1
aI-1
aI-1
aI-1
aI-1
aI-1
a(I10
tp31
a(I11
tp32
aI3
aI2
aI8
aI7
aI6
aI-1
aa(lp33
I-1
aI-1
aI-32
aI8
aI5
aI7
aI3
aI9
aI-1
aI-1
aI-35
aI9
aI8
aI3
aI7
aI6
aI2
aI-6
aI2
aI4
aa(lp34
I-1
aI-1
aI-1
aI-1
aI-1
aI-1
aI-1
aI-1
a(I20
tp35
a(I17
tp36
a(I38
tp37
aI-18
aI2
aI7
aI9
aI-1
aI-7
aI2
aI5
aI-1
aa(lp38
I-1
aI-1
aI-1
aI-1
aI-1
aI-27
aI8
aI7
aI1
aI5
aI6
a(I29
tp39
a(I7
tp40
aI1
aI4
aI2
aI-1
a(I17
tp41
aI4
aI9
aa(lp42
I-1
aI-1
aI-1
a(I8
tp43
a(I5
tp44
aI-1
aI-1
a(I8
tp45
aI7
aI4
aI9
aI8
aI1
aI-1
aI-1
aI-11
aI7
aI4
aI-1
aI-1
aa(lp46
I-19
aI6
aI8
aI3
aI2
aI-1
aI-28
aI2
aI3
aI7
aI4
aI5
aI6
aI1
aI-1
a(I18
tp47
a(I17
tp48
aI5
aI9
aI-1
aa(lp49
I-1
aI-1
aI-45
aI5
aI3
aI2
aI7
aI6
aI9
aI1
aI8
aI4
a(I6
tp50
a(I10
tp51
a(I14
tp52
aI4
aI9
aI8
a(I23
tp53
a(I11
tp54
aa(lp55
I-1
aI-1
aI-1
aI-1
aI-1
aI-1
aI-1
a(I14
tp56
aI-1
a(I17
I-36
tp57
aI3
aI1
aI2
aI7
aI6
aI9
aI8
aI-10
aI6
aI4
aa(lp58
I-1
aI-1
aI-1
aI-12
aI1
aI2
aI3
aI6
a(I11
I-35
tp59
aI6
aI7
aI2
aI4
aI3
aI8
aI5
aI-1
a(I10
I-10
tp60
aI3
aI7
aa(lp61
I-1
aI-1
aI-1
aI-1
aI-1
aI-1
aI-23
aI3
aI8
aI2
aI1
aI9
aI-1
aI-1
aI-1
aI-1
aI-7
aI2
aI5
aI-1
aa(lp62
I-1
aI-43
aI4
aI1
aI7
aI6
aI8
aI5
aI3
aI9
aI-1
aI-1
aI-1
aI-1
aI-1
aI-1
aI-18
aI8
aI9
aI1
aa.