(lp0
(lp1
I-1
aI-1
aI-1
aI-1
aI-1
aI-1
aI-1
aI-1
a(I28
tp2
aI-1
aa(lp3
I-1
aI-1
aI-1
aI-1
aI-1
aI-16
aI2
aI8
aI6
a(I13
tp4
aa(lp5
I-1
aI-1
aI-1
aI-1
aI-1
a(I22
tp6
a(I9
tp7
aI-15
aI7
aI8
aa(lp8
I-1
a(I18
tp9
a(I16
tp10
a(I14
tp11
a(I20
tp12
aI7
aI3
aI-9
aI4
aI5
aa(lp13
I-38
aI2
aI3
aI9
aI8
aI4
aI6
aI5
aI1
aI-1
aa(lp14
I-28
aI7
aI5
aI1
aI9
aI6
a(I21
tp15
a(I15
tp16
aI8
aI2
aa(lp17
I-39
aI9
aI8
aI4
aI3
aI5
aI1
aI7
aI2
aI-1
aa(lp18
I-1
aI-1
aI-1
aI-1
aI-1
a(I10
tp19
aI5
aI8
aI-1
aI-1
aa(lp20
I-27
aI7
aI5
aI2
aI4
aI1
aI8
aI-9
aI2
aI7
aa(lp21
I-1
aI-1
aI-1
aI-1
aI-16
aI7
aI4
aI5
a(I14
tp22
aI-1
aa(lp23
I-1
aI-21
aI8
aI7
aI1
aI2
aI3
aI-11
aI6
aI5
aa(lp24
I-1
aI-1
aI-1
aI-1
aI-1
aI-1
aI-13
aI9
aI4
a(I13
tp25
aa(lp26
I-1
aI-1
aI-1
aI-1
aI-1
aI-1
aI-1
aI-11
aI3
aI8
aa(lp27
I-1
aI-1
aI-1
aI-1
aI-1
aI-1
aI-1
aI-6
aI1
aI5
aa(lp28
I-1
aI-7
aI2
aI5
aI-1
aI-8
aI3
aI5
aI-1
aI-1
aa.