(lp0
(lp1
I-1
aI-1
aI-1
aI-1
aI-1
aI-1
aI-1
a(I23
tp2
a(I37
tp3
a(I11
tp4
aa(lp5
I-1
aI-1
aI-1
aI-1
aI-1
aI-22
aI8
aI6
aI1
aI7
aa(lp6
I-1
aI-1
aI-1
aI-1
aI-1
aI-1
aI-19
aI9
aI6
aI4
aa(lp7
I-1
aI-1
aI-1
aI-1
aI-1
a(I12
tp8
aI-10
aI8
aI2
a(I19
tp9
aa(lp10
I-1
aI-1
aI-1
aI-1
aI-11
aI3
aI8
aI-12
aI4
aI8
aa(lp11
I-35
aI7
aI8
aI5
aI6
aI9
a(I21
tp12
aI-8
aI3
aI5
aa(lp13
I-1
aI-1
aI-1
aI-1
aI-1
aI-17
aI3
aI4
aI9
aI1
aa(lp14
I-1
aI-1
aI-1
aI-1
aI-15
aI8
aI7
a(I24
tp15
aI5
aI2
aa(lp16
I-1
aI-1
aI-1
aI-1
aI-1
aI-23
aI5
aI8
aI7
aI3
aa(lp17
I-1
aI-1
aI-1
aI-1
aI-1
aI-8
aI6
aI2
a(I9
tp18
aI-1
aa(lp19
I-19
aI2
aI8
aI9
aI-1
aI-1
a(I5
tp20
aI6
aI3
aI-1
aa(lp21
I-1
aI-1
aI-1
aI-31
aI9
aI8
aI1
aI7
aI6
aI-1
aa(lp22
I-1
aI-1
aI-1
aI-1
aI-1
aI-5
aI4
aI1
a(I4
tp23
aI-1
aa(lp24
I-1
aI-1
aI-1
aI-1
aI-1
aI-1
aI-1
aI-9
aI3
aI6
aa(lp25
I-1
aI-1
aI-1
aI-1
aI-1
aI-10
aI6
aI3
aI1
aI-1
aa.