(lp0
(lp1
I-1
aI-1
aI-1
aI-1
aI-1
aI-1
aI-1
a(I11
tp2
a(I11
tp3
a(I11
tp4
aI-1
aI-1
aI-1
aI-1
aI-1
aI-1
a(I13
tp5
a(I15
tp6
aI-1
aI-1
aa(lp7
I-1
aI-36
aI6
aI8
aI1
aI2
aI3
aI7
aI5
aI4
aI-1
aI-1
aI-1
aI-1
aI-1
aI-8
aI5
aI3
aI-1
aI-1
aa(lp8
I-1
aI-1
aI-1
aI-1
aI-1
aI-1
aI-29
aI4
aI6
aI7
aI9
aI3
aI-1
a(I15
tp9
a(I10
tp10
aI-15
aI7
aI8
a(I19
tp11
aI-1
aa(lp12
I-1
aI-1
aI-1
aI-1
aI-1
aI-1
a(I10
tp13
a(I7
tp14
a(I7
tp15
a(I11
tp16
aI-1
aI-1
a(I11
tp17
aI8
aI2
aI-14
aI1
aI4
aI9
aI-1
aa(lp18
I-1
aI-1
aI-1
aI-1
aI-1
aI-14
aI7
aI2
aI1
aI4
aI-1
aI-23
aI5
aI7
aI8
aI3
a(I5
tp19
a(I41
tp20
aI6
aI2
aa(lp21
I-1
aI-1
aI-1
aI-1
aI-1
aI-35
aI3
aI5
aI6
aI7
aI4
aI8
aI2
a(I8
tp22
a(I11
tp23
aI-12
aI2
aI6
aI4
aI-1
aa(lp24
I-1
aI-1
aI-1
aI-1
aI-1
aI-1
aI-1
a(I12
tp25
a(I14
tp26
a(I4
tp27
aI-1
aI-10
aI1
aI6
aI3
aI-11
aI3
aI8
a(I8
tp28
aI-1
aa(lp29
I-1
aI-1
aI-1
aI-1
aI-1
aI-1
aI-19
aI5
aI6
aI1
aI7
aI-13
aI3
aI2
aI8
a(I23
tp30
a(I20
tp31
aI7
aI5
aI-1
aa(lp32
I-45
aI2
aI4
aI6
aI9
aI1
aI5
aI7
aI8
aI3
a(I10
tp33
aI-1
aI-1
aI-1
a(I22
tp34
aI5
aI8
aI1
aI3
aI4
aa(lp35
I-1
aI-1
aI-1
aI-1
aI-1
a(I7
tp36
a(I16
tp37
a(I4
tp38
a(I12
tp39
a(I14
tp40
aI2
aI7
aI4
aI6
aI5
aI1
aI3
aI9
aI-1
aI-1
aa(lp41
I-1
aI-45
aI6
aI2
aI1
aI5
aI7
aI3
aI4
aI9
aI8
aI-1
aI-1
a(I18
tp42
aI6
aI9
aI7
aI5
aI4
aI-1
aa(lp43
I-1
aI-1
aI-1
aI-1
aI-25
aI2
aI9
aI1
aI8
aI5
aI-1
aI-1
a(I8
tp44
aI6
aI1
aI8
aI2
aI3
a(I39
tp45
a(I13
tp46
aa(lp47
I-1
aI-1
aI-1
aI-1
aI-1
aI-1
aI-1
aI-1
aI-1
aI-21
aI6
aI4
aI1
aI3
aI7
aI-1
aI-10
aI2
aI3
aI5
aa(lp48
I-1
aI-1
aI-1
aI-1
aI-1
aI-1
aI-1
aI-1
aI-1
aI-1
aI-1
aI-19
aI7
aI9
aI3
aI-1
aI-1
a(I10
tp49
aI7
aI8
aa(lp50
I-1
aI-1
aI-1
aI-1
aI-1
aI-1
aI-1
aI-1
aI-1
aI-1
aI-1
aI-1
aI-1
aI-1
aI-1
aI-16
aI7
aI8
aI1
a(I22
tp51
aa(lp52
I-1
aI-1
aI-1
aI-1
aI-1
aI-1
aI-1
aI-1
aI-1
aI-1
aI-1
aI-1
aI-7
aI4
aI3
aI-1
aI-7
aI2
aI4
aI1
aa(lp53
I-1
aI-1
aI-1
aI-1
aI-1
aI-1
aI-1
aI-1
aI-1
aI-1
aI-1
aI-1
aI-1
aI-1
aI-7
aI3
aI4
aI-13
aI9
aI4
aa(lp54
I-1
aI-1
aI-1
aI-1
aI-1
aI-1
aI-1
aI-1
aI-1
aI-1
aI-1
a(I9
tp55
a(I5
tp56
aI-1
aI-1
a(I9
tp57
aI-1
a(I10
I-14
tp58
aI5
aI9
aa(lp59
I-1
aI-1
aI-1
aI-45
aI7
aI6
aI9
aI1
aI5
aI4
aI8
aI3
aI2
aI-1
aI-24
aI1
aI9
aI4
aI2
aI8
aa(lp60
I-1
aI-1
aI-1
aI-1
aI-1
aI-1
aI-1
aI-1
aI-1
aI-1
aI-23
aI6
aI3
aI4
aI2
aI8
aI-14
aI6
aI8
aI-1
aa.